target datalayout = "e-m:e-p270:32:32-p271:32:32-p272:64:64-i64:64-i128:128-f80:128-n8:16:32:64-S128"
target triple = "x86_64-unknown-linux-gnu"

%"class.rocksdb::InternalKeyComparator" = type { %"class.rocksdb::CompareInterface", %"class.rocksdb::UserComparatorWrapper" }
%"class.rocksdb::CompareInterface" = type { ptr }
%"class.rocksdb::UserComparatorWrapper" = type { ptr }
%"class.std::__cxx11::basic_string" = type { %"struct.std::__cxx11::basic_string<char>::_Alloc_hider", i64, %union.anon }
%"struct.std::__cxx11::basic_string<char>::_Alloc_hider" = type { ptr }
%union.anon = type { i64, [8 x i8] }
%"struct.std::_Vector_base.9" = type { %"struct.std::_Vector_base<rocksdb::FileMetaData *, std::allocator<rocksdb::FileMetaData *>>::_Vector_impl" }
%"struct.std::_Vector_base<rocksdb::FileMetaData *, std::allocator<rocksdb::FileMetaData *>>::_Vector_impl" = type { %"struct.std::_Vector_base<rocksdb::FileMetaData *, std::allocator<rocksdb::FileMetaData *>>::_Vector_impl_data" }
%"struct.std::_Vector_base<rocksdb::FileMetaData *, std::allocator<rocksdb::FileMetaData *>>::_Vector_impl_data" = type { ptr, ptr, ptr }
%"class.std::__shared_count" = type { ptr }
%"class.std::vector.22" = type { %"struct.std::_Vector_base.23" }
%"struct.std::_Vector_base.23" = type { %"struct.std::_Vector_base<rocksdb::DbPath, std::allocator<rocksdb::DbPath>>::_Vector_impl" }
%"struct.std::_Vector_base<rocksdb::DbPath, std::allocator<rocksdb::DbPath>>::_Vector_impl" = type { %"struct.std::_Vector_base<rocksdb::DbPath, std::allocator<rocksdb::DbPath>>::_Vector_impl_data" }
%"struct.std::_Vector_base<rocksdb::DbPath, std::allocator<rocksdb::DbPath>>::_Vector_impl_data" = type { ptr, ptr, ptr }
%"class.std::shared_ptr.35" = type { %"class.std::__shared_ptr.36" }
%"class.std::__shared_ptr.36" = type { ptr, %"class.std::__shared_count" }
%"class.std::shared_ptr.47" = type { %"class.std::__shared_ptr.48" }
%"class.std::__shared_ptr.48" = type { ptr, %"class.std::__shared_count" }
%"class.std::shared_ptr.50" = type { %"class.std::__shared_ptr.51" }
%"class.std::__shared_ptr.51" = type { ptr, %"class.std::__shared_count" }
%"class.std::shared_ptr.53" = type { %"class.std::__shared_ptr.54" }
%"class.std::__shared_ptr.54" = type { ptr, %"class.std::__shared_count" }
%"class.std::shared_ptr.56" = type { %"class.std::__shared_ptr.57" }
%"class.std::__shared_ptr.57" = type { ptr, %"class.std::__shared_count" }
%"class.std::vector.59" = type { %"struct.std::_Vector_base.60" }
%"struct.std::_Vector_base.60" = type { %"struct.std::_Vector_base<std::shared_ptr<rocksdb::TablePropertiesCollectorFactory>, std::allocator<std::shared_ptr<rocksdb::TablePropertiesCollectorFactory>>>::_Vector_impl" }
%"struct.std::_Vector_base<std::shared_ptr<rocksdb::TablePropertiesCollectorFactory>, std::allocator<std::shared_ptr<rocksdb::TablePropertiesCollectorFactory>>>::_Vector_impl" = type { %"struct.std::_Vector_base<std::shared_ptr<rocksdb::TablePropertiesCollectorFactory>, std::allocator<std::shared_ptr<rocksdb::TablePropertiesCollectorFactory>>>::_Vector_impl_data" }
%"struct.std::_Vector_base<std::shared_ptr<rocksdb::TablePropertiesCollectorFactory>, std::allocator<std::shared_ptr<rocksdb::TablePropertiesCollectorFactory>>>::_Vector_impl_data" = type { ptr, ptr, ptr }
%"class.std::shared_ptr.64" = type { %"class.std::__shared_ptr.65" }
%"class.std::__shared_ptr.65" = type { ptr, %"class.std::__shared_count" }
%"class.std::shared_ptr.67" = type { %"class.std::__shared_ptr.68" }
%"class.std::__shared_ptr.68" = type { ptr, %"class.std::__shared_count" }
%"class.std::shared_ptr.70" = type { %"class.std::__shared_ptr.71" }
%"class.std::__shared_ptr.71" = type { ptr, %"class.std::__shared_count" }
%"class.std::vector.73" = type { %"struct.std::_Vector_base.74" }
%"struct.std::_Vector_base.74" = type { %"struct.std::_Vector_base<int, std::allocator<int>>::_Vector_impl" }
%"struct.std::_Vector_base<int, std::allocator<int>>::_Vector_impl" = type { %"struct.std::_Vector_base<int, std::allocator<int>>::_Vector_impl_data" }
%"struct.std::_Vector_base<int, std::allocator<int>>::_Vector_impl_data" = type { ptr, ptr, ptr }
%"class.std::vector.88" = type { %"struct.std::_Vector_base.89" }
%"struct.std::_Vector_base.89" = type { %"struct.std::_Vector_base<unsigned long, std::allocator<unsigned long>>::_Vector_impl" }
%"struct.std::_Vector_base<unsigned long, std::allocator<unsigned long>>::_Vector_impl" = type { %"struct.std::_Vector_base<unsigned long, std::allocator<unsigned long>>::_Vector_impl_data" }
%"struct.std::_Vector_base<unsigned long, std::allocator<unsigned long>>::_Vector_impl_data" = type { ptr, ptr, ptr }
%"class.rocksdb::Arena" = type { %"class.rocksdb::Allocator", [8 x i8], [2048 x i8], i64, %"class.std::deque", %"class.std::deque.124", i64, ptr, ptr, i64, i64, i64, ptr }
%"class.rocksdb::Allocator" = type { ptr }
%"class.std::deque" = type { %"class.std::_Deque_base" }
%"class.std::_Deque_base" = type { %"struct.std::_Deque_base<std::unique_ptr<char[]>, std::allocator<std::unique_ptr<char[]>>>::_Deque_impl" }
%"struct.std::_Deque_base<std::unique_ptr<char[]>, std::allocator<std::unique_ptr<char[]>>>::_Deque_impl" = type { %"struct.std::_Deque_base<std::unique_ptr<char[]>, std::allocator<std::unique_ptr<char[]>>>::_Deque_impl_data" }
%"struct.std::_Deque_base<std::unique_ptr<char[]>, std::allocator<std::unique_ptr<char[]>>>::_Deque_impl_data" = type { ptr, i64, %"struct.std::_Deque_iterator", %"struct.std::_Deque_iterator" }
%"struct.std::_Deque_iterator" = type { ptr, ptr, ptr, ptr }
%"class.std::deque.124" = type { %"class.std::_Deque_base.125" }
%"class.std::_Deque_base.125" = type { %"struct.std::_Deque_base<rocksdb::MemMapping, std::allocator<rocksdb::MemMapping>>::_Deque_impl" }
%"struct.std::_Deque_base<rocksdb::MemMapping, std::allocator<rocksdb::MemMapping>>::_Deque_impl" = type { %"struct.std::_Deque_base<rocksdb::MemMapping, std::allocator<rocksdb::MemMapping>>::_Deque_impl_data" }
%"struct.std::_Deque_base<rocksdb::MemMapping, std::allocator<rocksdb::MemMapping>>::_Deque_impl_data" = type { ptr, i64, %"struct.std::_Deque_iterator.129", %"struct.std::_Deque_iterator.129" }
%"struct.std::_Deque_iterator.129" = type { ptr, ptr, ptr, ptr }
%"class.std::vector.136" = type { %"struct.std::_Vector_base.137" }
%"struct.std::_Vector_base.137" = type { %"struct.std::_Vector_base<rocksdb::LevelFilesBrief, std::allocator<rocksdb::LevelFilesBrief>>::_Vector_impl" }
%"struct.std::_Vector_base<rocksdb::LevelFilesBrief, std::allocator<rocksdb::LevelFilesBrief>>::_Vector_impl" = type { %"struct.std::_Vector_base<rocksdb::LevelFilesBrief, std::allocator<rocksdb::LevelFilesBrief>>::_Vector_impl_data" }
%"struct.std::_Vector_base<rocksdb::LevelFilesBrief, std::allocator<rocksdb::LevelFilesBrief>>::_Vector_impl_data" = type { ptr, ptr, ptr }
%"class.std::vector.8" = type { %"struct.std::_Vector_base.9" }
%"struct.std::__detail::_Hash_node_base" = type { ptr }
%"struct.std::__detail::_Prime_rehash_policy" = type { float, i64 }
%"class.rocksdb::VersionStorageInfo" = type { ptr, ptr, i32, i32, %"class.std::vector.88", %"class.rocksdb::autovector.147", %"class.rocksdb::FileIndexer", [8 x i8], %"class.rocksdb::Arena", i8, ptr, %"class.std::unordered_map.154", %"class.std::vector.174", i32, i32, double, %"class.std::vector.179", i8, %"class.std::vector.73", %"class.rocksdb::autovector.184", %"class.rocksdb::autovector.184", %"class.rocksdb::autovector.184", %"class.rocksdb::autovector.184", %"class.rocksdb::autovector.184", %"class.rocksdb::autovector.184", i64, i64, %"class.std::vector.190", %"class.std::vector.73", i32, %"class.std::vector.195", i64, i64, i64, i64, i64, i64, i64, i64, i64, ptr, i32, i8, i8, i32, %"struct.rocksdb::OffpeakTimeOption" }
%"class.rocksdb::autovector.147" = type { i64, [128 x i8], ptr, %"class.std::vector.136" }
%"class.rocksdb::FileIndexer" = type { i64, ptr, %"class.rocksdb::autovector.148", ptr }
%"class.rocksdb::autovector.148" = type { i64, [128 x i8], ptr, %"class.std::vector.149" }
%"class.std::vector.149" = type { %"struct.std::_Vector_base.150" }
%"struct.std::_Vector_base.150" = type { %"struct.std::_Vector_base<rocksdb::FileIndexer::IndexLevel, std::allocator<rocksdb::FileIndexer::IndexLevel>>::_Vector_impl" }
%"struct.std::_Vector_base<rocksdb::FileIndexer::IndexLevel, std::allocator<rocksdb::FileIndexer::IndexLevel>>::_Vector_impl" = type { %"struct.std::_Vector_base<rocksdb::FileIndexer::IndexLevel, std::allocator<rocksdb::FileIndexer::IndexLevel>>::_Vector_impl_data" }
%"struct.std::_Vector_base<rocksdb::FileIndexer::IndexLevel, std::allocator<rocksdb::FileIndexer::IndexLevel>>::_Vector_impl_data" = type { ptr, ptr, ptr }
%"class.std::unordered_map.154" = type { %"class.std::_Hashtable.155" }
%"class.std::_Hashtable.155" = type { ptr, i64, %"struct.std::__detail::_Hash_node_base", i64, %"struct.std::__detail::_Prime_rehash_policy", ptr }
%"class.std::vector.174" = type { %"struct.std::_Vector_base.175" }
%"struct.std::_Vector_base.175" = type { %"struct.std::_Vector_base<std::shared_ptr<rocksdb::BlobFileMetaData>, std::allocator<std::shared_ptr<rocksdb::BlobFileMetaData>>>::_Vector_impl" }
%"struct.std::_Vector_base<std::shared_ptr<rocksdb::BlobFileMetaData>, std::allocator<std::shared_ptr<rocksdb::BlobFileMetaData>>>::_Vector_impl" = type { %"struct.std::_Vector_base<std::shared_ptr<rocksdb::BlobFileMetaData>, std::allocator<std::shared_ptr<rocksdb::BlobFileMetaData>>>::_Vector_impl_data" }
%"struct.std::_Vector_base<std::shared_ptr<rocksdb::BlobFileMetaData>, std::allocator<std::shared_ptr<rocksdb::BlobFileMetaData>>>::_Vector_impl_data" = type { ptr, ptr, ptr }
%"class.std::vector.179" = type { %"struct.std::_Vector_base.180" }
%"struct.std::_Vector_base.180" = type { %"struct.std::_Vector_base<std::vector<int>, std::allocator<std::vector<int>>>::_Vector_impl" }
%"struct.std::_Vector_base<std::vector<int>, std::allocator<std::vector<int>>>::_Vector_impl" = type { %"struct.std::_Vector_base<std::vector<int>, std::allocator<std::vector<int>>>::_Vector_impl_data" }
%"struct.std::_Vector_base<std::vector<int>, std::allocator<std::vector<int>>>::_Vector_impl_data" = type { ptr, ptr, ptr }
%"class.rocksdb::autovector.184" = type { i64, [128 x i8], ptr, %"class.std::vector.185" }
%"class.std::vector.185" = type { %"struct.std::_Vector_base.186" }
%"struct.std::_Vector_base.186" = type { %"struct.std::_Vector_base<std::pair<int, rocksdb::FileMetaData *>, std::allocator<std::pair<int, rocksdb::FileMetaData *>>>::_Vector_impl" }
%"struct.std::_Vector_base<std::pair<int, rocksdb::FileMetaData *>, std::allocator<std::pair<int, rocksdb::FileMetaData *>>>::_Vector_impl" = type { %"struct.std::_Vector_base<std::pair<int, rocksdb::FileMetaData *>, std::allocator<std::pair<int, rocksdb::FileMetaData *>>>::_Vector_impl_data" }
%"struct.std::_Vector_base<std::pair<int, rocksdb::FileMetaData *>, std::allocator<std::pair<int, rocksdb::FileMetaData *>>>::_Vector_impl_data" = type { ptr, ptr, ptr }
%"class.std::vector.190" = type { %"struct.std::_Vector_base.191" }
%"struct.std::_Vector_base.191" = type { %"struct.std::_Vector_base<double, std::allocator<double>>::_Vector_impl" }
%"struct.std::_Vector_base<double, std::allocator<double>>::_Vector_impl" = type { %"struct.std::_Vector_base<double, std::allocator<double>>::_Vector_impl_data" }
%"struct.std::_Vector_base<double, std::allocator<double>>::_Vector_impl_data" = type { ptr, ptr, ptr }
%"class.std::vector.195" = type { %"struct.std::_Vector_base.196" }
%"struct.std::_Vector_base.196" = type { %"struct.std::_Vector_base<rocksdb::InternalKey, std::allocator<rocksdb::InternalKey>>::_Vector_impl" }
%"struct.std::_Vector_base<rocksdb::InternalKey, std::allocator<rocksdb::InternalKey>>::_Vector_impl" = type { %"struct.std::_Vector_base<rocksdb::InternalKey, std::allocator<rocksdb::InternalKey>>::_Vector_impl_data" }
%"struct.std::_Vector_base<rocksdb::InternalKey, std::allocator<rocksdb::InternalKey>>::_Vector_impl_data" = type { ptr, ptr, ptr }
%"struct.rocksdb::OffpeakTimeOption" = type { %"class.std::__cxx11::basic_string", i32, i32 }
%"class.__gnu_cxx::__normal_iterator" = type { ptr }
%"struct.rocksdb::ImmutableCFOptions" = type <{ i8, i8, [6 x i8], ptr, %"class.rocksdb::InternalKeyComparator", %"class.std::shared_ptr.47", ptr, %"class.std::shared_ptr.50", i32, i32, i64, i8, [7 x i8], ptr, %"class.std::shared_ptr.53", %"class.std::shared_ptr.56", %"class.std::vector.59", i32, i8, i8, [2 x i8], i32, i8, i8, i8, i8, i64, i64, %"class.std::shared_ptr.64", %"class.std::vector.22", %"class.std::shared_ptr.67", %"class.std::shared_ptr.70", %"class.std::shared_ptr.35", i8, [7 x i8] }>

; Function Attrs: mustprogress nounwind uwtable
define linkonce_odr noundef nonnull align 8 dereferenceable(8) ptr @_ZNK9__gnu_cxx17__normal_iteratorIPKPN7rocksdb12FileMetaDataESt6vectorIS3_SaIS3_EEE4baseEv(ptr noundef nonnull align 8 dereferenceable(8) %this) #1 comdat align 2 {
entry:
  %this.addr = alloca ptr, align 8
  store ptr %this, ptr %this.addr, align 8
  %this1 = load ptr, ptr %this.addr, align 8
  %_M_current = getelementptr inbounds %"class.__gnu_cxx::__normal_iterator", ptr %this1, i32 0, i32 0
  ret ptr %_M_current
}

; Function Attrs: mustprogress nounwind uwtable
define linkonce_odr void @_ZN9__gnu_cxx17__normal_iteratorIPKPN7rocksdb12FileMetaDataESt6vectorIS3_SaIS3_EEEC2ERKS5_(ptr noundef nonnull align 8 dereferenceable(8) %this, ptr noundef nonnull align 8 dereferenceable(8) %__i) unnamed_addr #1 comdat align 2 {
entry:
  %this.addr = alloca ptr, align 8
  %__i.addr = alloca ptr, align 8
  store ptr %this, ptr %this.addr, align 8
  store ptr %__i, ptr %__i.addr, align 8
  %this1 = load ptr, ptr %this.addr, align 8
  %_M_current = getelementptr inbounds %"class.__gnu_cxx::__normal_iterator", ptr %this1, i32 0, i32 0
  %0 = load ptr, ptr %__i.addr, align 8
  %1 = load ptr, ptr %0, align 8
  store ptr %1, ptr %_M_current, align 8
  ret void
}

; Function Attrs: mustprogress nounwind uwtable
define linkonce_odr noundef zeroext i1 @_ZN9__gnu_cxxeqIPKPN7rocksdb12FileMetaDataESt6vectorIS3_SaIS3_EEEEbRKNS_17__normal_iteratorIT_T0_EESE_(ptr noundef nonnull align 8 dereferenceable(8) %__lhs, ptr noundef nonnull align 8 dereferenceable(8) %__rhs) #1 comdat {
entry:
  %__lhs.addr = alloca ptr, align 8
  %__rhs.addr = alloca ptr, align 8
  store ptr %__lhs, ptr %__lhs.addr, align 8
  store ptr %__rhs, ptr %__rhs.addr, align 8
  %0 = load ptr, ptr %__lhs.addr, align 8
  %call = call noundef nonnull align 8 dereferenceable(8) ptr @_ZNK9__gnu_cxx17__normal_iteratorIPKPN7rocksdb12FileMetaDataESt6vectorIS3_SaIS3_EEE4baseEv(ptr noundef nonnull align 8 dereferenceable(8) %0) #3
  %1 = load ptr, ptr %call, align 8
  %2 = load ptr, ptr %__rhs.addr, align 8
  %call1 = call noundef nonnull align 8 dereferenceable(8) ptr @_ZNK9__gnu_cxx17__normal_iteratorIPKPN7rocksdb12FileMetaDataESt6vectorIS3_SaIS3_EEE4baseEv(ptr noundef nonnull align 8 dereferenceable(8) %2) #3
  %3 = load ptr, ptr %call1, align 8
  %cmp = icmp eq ptr %1, %3
  ret i1 %cmp
}

; Function Attrs: mustprogress nounwind uwtable
define linkonce_odr ptr @_ZNKSt6vectorIPN7rocksdb12FileMetaDataESaIS2_EE3endEv(ptr noundef nonnull align 8 dereferenceable(24) %this) #1 comdat align 2 {
entry:
  %retval = alloca %"class.__gnu_cxx::__normal_iterator", align 8
  %this.addr = alloca ptr, align 8
  store ptr %this, ptr %this.addr, align 8
  %this1 = load ptr, ptr %this.addr, align 8
  %_M_impl = getelementptr inbounds %"struct.std::_Vector_base.9", ptr %this1, i32 0, i32 0
  %_M_finish = getelementptr inbounds %"struct.std::_Vector_base<rocksdb::FileMetaData *, std::allocator<rocksdb::FileMetaData *>>::_Vector_impl_data", ptr %_M_impl, i32 0, i32 1
  call void @_ZN9__gnu_cxx17__normal_iteratorIPKPN7rocksdb12FileMetaDataESt6vectorIS3_SaIS3_EEEC2ERKS5_(ptr noundef nonnull align 8 dereferenceable(8) %retval, ptr noundef nonnull align 8 dereferenceable(8) %_M_finish) #3
  %coerce.dive = getelementptr inbounds %"class.__gnu_cxx::__normal_iterator", ptr %retval, i32 0, i32 0
  %0 = load ptr, ptr %coerce.dive, align 8
  ret ptr %0
}

; Function Attrs: mustprogress nounwind uwtable
define linkonce_odr ptr @_ZNKSt6vectorIPN7rocksdb12FileMetaDataESaIS2_EE5beginEv(ptr noundef nonnull align 8 dereferenceable(24) %this) #1 comdat align 2 {
entry:
  %retval = alloca %"class.__gnu_cxx::__normal_iterator", align 8
  %this.addr = alloca ptr, align 8
  store ptr %this, ptr %this.addr, align 8
  %this1 = load ptr, ptr %this.addr, align 8
  %_M_impl = getelementptr inbounds %"struct.std::_Vector_base.9", ptr %this1, i32 0, i32 0
  %_M_start = getelementptr inbounds %"struct.std::_Vector_base<rocksdb::FileMetaData *, std::allocator<rocksdb::FileMetaData *>>::_Vector_impl_data", ptr %_M_impl, i32 0, i32 0
  call void @_ZN9__gnu_cxx17__normal_iteratorIPKPN7rocksdb12FileMetaDataESt6vectorIS3_SaIS3_EEEC2ERKS5_(ptr noundef nonnull align 8 dereferenceable(8) %retval, ptr noundef nonnull align 8 dereferenceable(8) %_M_start) #3
  %coerce.dive = getelementptr inbounds %"class.__gnu_cxx::__normal_iterator", ptr %retval, i32 0, i32 0
  %0 = load ptr, ptr %coerce.dive, align 8
  ret ptr %0
}

; Function Attrs: mustprogress nounwind uwtable
define linkonce_odr noundef zeroext i1 @_ZNKSt6vectorIPN7rocksdb12FileMetaDataESaIS2_EE5emptyEv(ptr noundef nonnull align 8 dereferenceable(24) %this) #1 comdat align 2 {
entry:
  %this.addr = alloca ptr, align 8
  %ref.tmp = alloca %"class.__gnu_cxx::__normal_iterator", align 8
  %ref.tmp2 = alloca %"class.__gnu_cxx::__normal_iterator", align 8
  store ptr %this, ptr %this.addr, align 8
  %this1 = load ptr, ptr %this.addr, align 8
  %call = call ptr @_ZNKSt6vectorIPN7rocksdb12FileMetaDataESaIS2_EE5beginEv(ptr noundef nonnull align 8 dereferenceable(24) %this1) #3
  %coerce.dive = getelementptr inbounds %"class.__gnu_cxx::__normal_iterator", ptr %ref.tmp, i32 0, i32 0
  store ptr %call, ptr %coerce.dive, align 8
  %call3 = call ptr @_ZNKSt6vectorIPN7rocksdb12FileMetaDataESaIS2_EE3endEv(ptr noundef nonnull align 8 dereferenceable(24) %this1) #3
  %coerce.dive4 = getelementptr inbounds %"class.__gnu_cxx::__normal_iterator", ptr %ref.tmp2, i32 0, i32 0
  store ptr %call3, ptr %coerce.dive4, align 8
  %call5 = call noundef zeroext i1 @_ZN9__gnu_cxxeqIPKPN7rocksdb12FileMetaDataESt6vectorIS3_SaIS3_EEEEbRKNS_17__normal_iteratorIT_T0_EESE_(ptr noundef nonnull align 8 dereferenceable(8) %ref.tmp, ptr noundef nonnull align 8 dereferenceable(8) %ref.tmp2) #3
  ret i1 %call5
}

; Function Attrs: mustprogress nounwind uwtable
define linkonce_odr noundef nonnull align 8 dereferenceable(24) ptr @_ZNK7rocksdb18VersionStorageInfo10LevelFilesEi(ptr noundef nonnull align 16 dereferenceable(4112) %this, i32 noundef %level) #1 comdat align 2 {
entry:
  %this.addr = alloca ptr, align 8
  %level.addr = alloca i32, align 4
  store ptr %this, ptr %this.addr, align 8
  store i32 %level, ptr %level.addr, align 4
  %this1 = load ptr, ptr %this.addr, align 8
  %files_ = getelementptr inbounds %"class.rocksdb::VersionStorageInfo", ptr %this1, i32 0, i32 10
  %0 = load ptr, ptr %files_, align 8
  %1 = load i32, ptr %level.addr, align 4
  %idxprom = sext i32 %1 to i64
  %arrayidx = getelementptr inbounds %"class.std::vector.8", ptr %0, i64 %idxprom
  ret ptr %arrayidx
}

; Function Attrs: mustprogress uwtable
define noundef i32 @_ZN7rocksdb10Compaction24EvaluatePenultimateLevelEPKNS_18VersionStorageInfoERKNS_16ImmutableOptionsEii(ptr noundef %vstorage, ptr noundef nonnull align 8 dereferenceable(857) %immutable_options, i32 noundef %start_level, i32 noundef %output_level) #0 align 2 {
entry:
  %retval = alloca i32, align 4
  %vstorage.addr = alloca ptr, align 8
  %immutable_options.addr = alloca ptr, align 8
  %start_level.addr = alloca i32, align 4
  %output_level.addr = alloca i32, align 4
  %penultimate_level = alloca i32, align 4
  %supports_per_key_placement = alloca i8, align 1
  store ptr %vstorage, ptr %vstorage.addr, align 8
  store ptr %immutable_options, ptr %immutable_options.addr, align 8
  store i32 %start_level, ptr %start_level.addr, align 4
  store i32 %output_level, ptr %output_level.addr, align 4
  %0 = load ptr, ptr %immutable_options.addr, align 8
  %add.ptr = getelementptr inbounds i8, ptr %0, i64 576
  %compaction_style = getelementptr inbounds %"struct.rocksdb::ImmutableCFOptions", ptr %add.ptr, i32 0, i32 0
  %1 = load i8, ptr %compaction_style, align 8
  %conv = sext i8 %1 to i32
  %cmp = icmp ne i32 %conv, 0
  br i1 %cmp, label %land.lhs.true, label %if.end

land.lhs.true:                                    ; preds = %entry
  %2 = load ptr, ptr %immutable_options.addr, align 8
  %add.ptr1 = getelementptr inbounds i8, ptr %2, i64 576
  %compaction_style2 = getelementptr inbounds %"struct.rocksdb::ImmutableCFOptions", ptr %add.ptr1, i32 0, i32 0
  %3 = load i8, ptr %compaction_style2, align 8
  %conv3 = sext i8 %3 to i32
  %cmp4 = icmp ne i32 %conv3, 1
  br i1 %cmp4, label %if.then, label %if.end

if.then:                                          ; preds = %land.lhs.true
  store i32 -1, ptr %retval, align 4
  br label %return

if.end:                                           ; preds = %land.lhs.true, %entry
  %4 = load i32, ptr %output_level.addr, align 4
  %5 = load ptr, ptr %immutable_options.addr, align 8
  %add.ptr5 = getelementptr inbounds i8, ptr %5, i64 576
  %num_levels = getelementptr inbounds %"struct.rocksdb::ImmutableCFOptions", ptr %add.ptr5, i32 0, i32 21
  %6 = load i32, ptr %num_levels, align 8
  %sub = sub nsw i32 %6, 1
  %cmp6 = icmp ne i32 %4, %sub
  br i1 %cmp6, label %if.then7, label %if.end8

if.then7:                                         ; preds = %if.end
  store i32 -1, ptr %retval, align 4
  br label %return

if.end8:                                          ; preds = %if.end
  %7 = load i32, ptr %output_level.addr, align 4
  %sub9 = sub nsw i32 %7, 1
  store i32 %sub9, ptr %penultimate_level, align 4
  %8 = load i32, ptr %penultimate_level, align 4
  %cmp10 = icmp sle i32 %8, 0
  br i1 %cmp10, label %if.then11, label %if.end12

if.then11:                                        ; preds = %if.end8
  store i32 -1, ptr %retval, align 4
  br label %return

if.end12:                                         ; preds = %if.end8
  %9 = load i32, ptr %start_level.addr, align 4
  %10 = load ptr, ptr %immutable_options.addr, align 8
  %add.ptr13 = getelementptr inbounds i8, ptr %10, i64 576
  %num_levels14 = getelementptr inbounds %"struct.rocksdb::ImmutableCFOptions", ptr %add.ptr13, i32 0, i32 21
  %11 = load i32, ptr %num_levels14, align 8
  %sub15 = sub nsw i32 %11, 1
  %cmp16 = icmp eq i32 %9, %sub15
  br i1 %cmp16, label %land.lhs.true17, label %if.end24

land.lhs.true17:                                  ; preds = %if.end12
  %12 = load ptr, ptr %immutable_options.addr, align 8
  %add.ptr18 = getelementptr inbounds i8, ptr %12, i64 576
  %compaction_style19 = getelementptr inbounds %"struct.rocksdb::ImmutableCFOptions", ptr %add.ptr18, i32 0, i32 0
  %13 = load i8, ptr %compaction_style19, align 8
  %conv20 = sext i8 %13 to i32
  %cmp21 = icmp ne i32 %conv20, 1
  br i1 %cmp21, label %if.then23, label %lor.lhs.false

lor.lhs.false:                                    ; preds = %land.lhs.true17
  %14 = load ptr, ptr %vstorage.addr, align 8
  %15 = load i32, ptr %penultimate_level, align 4
  %call = call noundef nonnull align 8 dereferenceable(24) ptr @_ZNK7rocksdb18VersionStorageInfo10LevelFilesEi(ptr noundef nonnull align 16 dereferenceable(4112) %14, i32 noundef %15)
  %call22 = call noundef zeroext i1 @_ZNKSt6vectorIPN7rocksdb12FileMetaDataESaIS2_EE5emptyEv(ptr noundef nonnull align 8 dereferenceable(24) %call) #3
  br i1 %call22, label %if.end24, label %if.then23

if.then23:                                        ; preds = %lor.lhs.false, %land.lhs.true17
  store i32 -1, ptr %retval, align 4
  br label %return

if.end24:                                         ; preds = %lor.lhs.false, %if.end12
  %16 = load ptr, ptr %immutable_options.addr, align 8
  %add.ptr25 = getelementptr inbounds i8, ptr %16, i64 576
  %preclude_last_level_data_seconds = getelementptr inbounds %"struct.rocksdb::ImmutableCFOptions", ptr %add.ptr25, i32 0, i32 26
  %17 = load i64, ptr %preclude_last_level_data_seconds, align 8
  %cmp26 = icmp ugt i64 %17, 0
  %frombool = zext i1 %cmp26 to i8
  store i8 %frombool, ptr %supports_per_key_placement, align 1
  %18 = load i8, ptr %supports_per_key_placement, align 1
  %tobool = trunc i8 %18 to i1
  br i1 %tobool, label %if.end28, label %if.then27

if.then27:                                        ; preds = %if.end24
  store i32 -1, ptr %retval, align 4
  br label %return

if.end28:                                         ; preds = %if.end24
  %19 = load i32, ptr %penultimate_level, align 4
  store i32 %19, ptr %retval, align 4
  br label %return

return:                                           ; preds = %if.end28, %if.then27, %if.then23, %if.then11, %if.then7, %if.then
  %20 = load i32, ptr %retval, align 4
  ret i32 %20
}