; Function Attrs: mustprogress nofree norecurse nosync nounwind willreturn memory(read, inaccessiblemem: none) uwtable
define noundef i32 @_ZN7rocksdb10Compaction24EvaluatePenultimateLevelEPKNS_18VersionStorageInfoERKNS_16ImmutableOptionsEii(ptr nocapture noundef readonly %vstorage, ptr nocapture noundef nonnull readonly align 8 dereferenceable(857) %immutable_options, i32 noundef %start_level, i32 noundef %output_level) local_unnamed_addr #4 align 2 {
entry:
  %add.ptr = getelementptr inbounds i8, ptr %immutable_options, i64 576
  %0 = load i8, ptr %add.ptr, align 8
  %switch = icmp ult i8 %0, 2
  br i1 %switch, label %if.end, label %return

if.end:                                           ; preds = %entry
  %num_levels = getelementptr inbounds i8, ptr %immutable_options, i64 744
  %1 = load i32, ptr %num_levels, align 8
  %sub = add nsw i32 %1, -1
  %cmp6.not = icmp eq i32 %sub, %output_level
  br i1 %cmp6.not, label %if.end8, label %return

if.end8:                                          ; preds = %if.end
  %sub9 = add nsw i32 %output_level, -1
  %cmp10 = icmp slt i32 %output_level, 2
  br i1 %cmp10, label %return, label %if.end12

if.end12:                                         ; preds = %if.end8
  %cmp16 = icmp eq i32 %output_level, %start_level
  br i1 %cmp16, label %land.lhs.true17, label %if.end24

land.lhs.true17:                                  ; preds = %if.end12
  %cmp21.not = icmp eq i8 %0, 1
  br i1 %cmp21.not, label %lor.lhs.false, label %return

lor.lhs.false:                                    ; preds = %land.lhs.true17
  %files_.i = getelementptr inbounds i8, ptr %vstorage, i64 2712
  %2 = load ptr, ptr %files_.i, align 8
  %idxprom.i = zext nneg i32 %sub9 to i64
  %arrayidx.i = getelementptr inbounds %"class.std::vector.8", ptr %2, i64 %idxprom.i
  %3 = load ptr, ptr %arrayidx.i, align 8
  %_M_finish.i.i = getelementptr inbounds i8, ptr %arrayidx.i, i64 8
  %4 = load ptr, ptr %_M_finish.i.i, align 8
  %cmp.i.i = icmp eq ptr %3, %4
  br i1 %cmp.i.i, label %if.end24, label %return

if.end24:                                         ; preds = %lor.lhs.false, %if.end12
  %preclude_last_level_data_seconds = getelementptr inbounds i8, ptr %immutable_options, i64 752
  %5 = load i64, ptr %preclude_last_level_data_seconds, align 8
  %cmp26.not = icmp eq i64 %5, 0
  %.sub9 = select i1 %cmp26.not, i32 -1, i32 %sub9
  br label %return

return:                                           ; preds = %entry, %if.end24, %land.lhs.true17, %lor.lhs.false, %if.end8, %if.end
  %retval.0 = phi i32 [ -1, %entry ], [ -1, %if.end ], [ -1, %if.end8 ], [ -1, %lor.lhs.false ], [ -1, %land.lhs.true17 ], [ %.sub9, %if.end24 ]
  ret i32 %retval.0
}